Certificate:
    Data:
        Version: 1 (0x0)
        Serial Number: 2 (0x2)
    Signature Algorithm: md5WithRSAEncryption
        Issuer: C=CA, ST=Alberta, L=Edmonton, O=Group12_W19, OU=Group12_W19, CN=Group12_W19.net
        Validity
            Not Before: Mar 29 21:42:36 2019 GMT
            Not After : Mar 26 21:42:36 2029 GMT
        Subject: C=CA, ST=Alberta, L=Edmonton, O=Group12_W19_Web_Services, OU=Group12_W19_Web_Services, CN=10.229.12.4
        Subject Public Key Info:
            Public Key Algorithm: rsaEncryption
                Public-Key: (4096 bit)
                Modulus:
                    00:bd:f2:7c:d5:12:a2:51:3b:23:b5:ee:05:fa:33:
                    cd:4a:22:93:3f:38:33:72:60:c5:53:ea:39:ea:e0:
                    65:c2:08:e5:00:44:e6:eb:eb:9d:a1:78:c3:3a:d2:
                    13:d4:fd:1b:9f:7d:37:c8:e6:40:40:ae:f5:62:e2:
                    5a:7b:c7:66:67:56:c6:03:22:53:1d:68:0a:33:43:
                    f2:d5:18:06:8e:4c:b6:bb:c3:8a:0c:86:f2:3f:f0:
                    df:b4:26:7d:86:c2:fb:01:0e:4c:62:41:06:7f:30:
                    da:82:f7:7a:4c:61:13:04:7f:24:97:66:01:e8:37:
                    bf:db:54:b7:56:af:71:8f:00:84:8f:e0:e6:11:c7:
                    49:28:bf:5f:92:bd:68:9d:e8:0f:59:b1:52:88:27:
                    d5:ed:24:b9:76:b8:ab:64:5a:39:aa:a5:6d:59:14:
                    c3:e1:86:5f:5d:56:e0:78:2c:24:59:96:22:d3:af:
                    42:04:4f:75:54:0a:fc:fd:d6:de:01:45:6e:9b:0b:
                    a9:d3:0c:cb:aa:f8:1c:81:ab:28:b7:5a:e0:f1:cf:
                    7e:28:16:4c:f4:1d:58:16:80:72:8c:cf:fa:2f:b4:
                    62:b9:ad:47:cf:f4:68:c7:e3:4e:2b:99:59:d7:85:
                    d0:28:e4:db:fa:f9:e7:ef:bd:c6:4c:f3:a4:5c:a5:
                    17:82:ae:23:a0:5b:1d:e7:5f:72:bf:6d:8a:54:c6:
                    f8:8f:da:ee:03:4d:6f:62:82:f5:54:a5:af:1c:97:
                    c7:ce:01:c2:7c:29:f3:78:39:af:81:71:17:93:ed:
                    d4:67:cd:19:fa:86:13:0e:c4:b7:44:23:ab:e5:3d:
                    84:07:53:bc:c5:ad:b3:b9:d8:33:50:3a:78:07:c1:
                    39:be:60:92:23:0a:2f:01:ce:18:3c:7e:c2:2b:c7:
                    c5:72:ab:61:66:55:5a:8e:e4:0f:43:f0:52:a2:74:
                    57:51:e7:2a:4b:5d:7a:5b:de:fb:37:a0:7e:5a:6a:
                    82:68:1f:75:b2:47:76:87:ca:84:c8:57:0a:48:c2:
                    35:68:5e:07:e6:37:2e:c7:27:9f:67:04:ff:18:d1:
                    f8:70:b3:ed:18:f2:ec:3f:d5:c4:d5:1f:b5:df:9e:
                    e7:37:01:db:e8:4a:83:8d:fe:f7:0b:8a:8d:50:5a:
                    12:f2:2e:59:d8:a3:31:fd:59:f9:44:21:d7:ed:c4:
                    4f:dd:05:00:18:38:55:13:4c:b6:a8:a0:1e:b5:68:
                    ed:9a:20:4b:69:71:24:5b:44:50:47:01:ee:f3:c4:
                    dc:97:fd:ae:8d:b5:0c:67:f5:52:4d:e8:c0:11:d5:
                    2a:b6:b1:65:6c:41:c1:bc:03:b2:a4:48:07:63:44:
                    ed:58:1f
                Exponent: 65537 (0x10001)
    Signature Algorithm: md5WithRSAEncryption
         20:1d:5b:09:bd:cd:d2:9b:0b:72:fc:17:39:c2:c6:68:3a:ff:
         97:4b:61:a8:39:43:8c:02:2d:b7:0a:c9:37:4f:1a:d0:ea:bd:
         a7:22:36:6e:31:ad:bc:5c:63:ea:fc:74:56:66:2e:f1:d3:a9:
         97:a5:fb:fa:31:85:4e:18:29:75:38:72:38:d9:e9:2a:7a:12:
         30:fa:ad:43:eb:d8:31:aa:c7:97:3f:8b:aa:a4:c4:c0:52:08:
         01:83:49:93:76:1b:4b:10:65:37:c6:4c:80:92:c0:64:f7:0c:
         27:d2:0f:05:15:35:f9:c0:ec:1b:63:a8:89:0c:ed:55:27:4a:
         50:b5:d0:31:2e:09:1a:f9:bc:8e:ba:b5:d7:b2:46:0e:d2:13:
         d7:69:55:d9:14:d7:63:0b:ad:aa:8a:69:40:9e:67:7e:c2:d3:
         fd:71:4a:58:a4:3e:54:a9:16:35:cc:0b:71:e9:f8:d3:17:fe:
         0d:39:b2:c7:73:c8:b6:fd:9d:7a:2c:9f:01:9d:45:5f:b6:f1:
         94:17:f3:92:85:f8:99:e6:30:1a:f9:19:14:21:f1:18:1e:7f:
         bd:84:a2:72:9e:84:6a:ac:bf:56:67:0a:31:a0:55:86:fa:0d:
         78:f0:22:e8:13:cd:a8:bf:03:5c:d0:ce:ec:fe:4e:fa:1b:98:
         aa:67:cb:dd:1c:28:6f:ae:1a:42:73:b0:6e:d7:7f:f4:41:80:
         70:01:81:c8:b0:9c:26:d2:89:ea:fc:de:b1:ec:98:b2:b4:00:
         61:25:af:41:5d:49:53:14:17:09:6b:93:96:6d:8a:d0:1d:a3:
         27:eb:cb:08:2e:0b:21:7b:e9:0b:8e:54:d5:d5:85:e5:d0:5e:
         1b:1e:31:0f:69:8d:56:26:59:3e:dc:20:49:31:2e:8f:24:13:
         61:15:80:8f:a8:6b:65:76:75:0e:85:34:16:26:45:81:d8:11:
         a7:b5:bb:cb:14:e9:4f:e6:68:0e:aa:64:0e:04:d3:b9:31:8c:
         cb:a2:71:17:18:8a:4e:23:a0:20:79:4a:17:9a:23:c3:25:a2:
         d0:97:ed:f4:6e:17:49:31:11:d9:c5:11:42:08:d9:33:ff:b9:
         8f:4d:7a:4b:d2:a7:8e:14:b2:05:81:c9:c0:77:94:78:33:92:
         7c:42:be:a4:4d:9b:66:16:cd:00:25:fc:6a:f8:dd:b1:40:4d:
         40:4a:d4:87:77:09:2c:1a:d4:bc:2e:10:35:12:2b:77:42:46:
         58:20:7e:7d:5f:ea:47:4c:79:d0:be:34:14:0f:d1:85:de:e9:
         fe:bb:cd:57:b2:19:9e:fb:60:e2:c8:1c:46:41:01:a6:64:bf:
         36:d8:46:f4:ae:1c:8c:99
-----BEGIN CERTIFICATE-----
MIIFezCCA2MCAQIwDQYJKoZIhvcNAQEEBQAweDELMAkGA1UEBhMCQ0ExEDAOBgNV
BAgMB0FsYmVydGExETAPBgNVBAcMCEVkbW9udG9uMRQwEgYDVQQKDAtHcm91cDEy
X1cxOTEUMBIGA1UECwwLR3JvdXAxMl9XMTkxGDAWBgNVBAMMD0dyb3VwMTJfVzE5
Lm5ldDAeFw0xOTAzMjkyMTQyMzZaFw0yOTAzMjYyMTQyMzZaMIGOMQswCQYDVQQG
EwJDQTEQMA4GA1UECAwHQWxiZXJ0YTERMA8GA1UEBwwIRWRtb250b24xITAfBgNV
BAoMGEdyb3VwMTJfVzE5X1dlYl9TZXJ2aWNlczEhMB8GA1UECwwYR3JvdXAxMl9X
MTlfV2ViX1NlcnZpY2VzMRQwEgYDVQQDDAsxMC4yMjkuMTIuNDCCAiIwDQYJKoZI
hvcNAQEBBQADggIPADCCAgoCggIBAL3yfNUSolE7I7XuBfozzUoikz84M3JgxVPq
OergZcII5QBE5uvrnaF4wzrSE9T9G599N8jmQECu9WLiWnvHZmdWxgMiUx1oCjND
8tUYBo5MtrvDigyG8j/w37QmfYbC+wEOTGJBBn8w2oL3ekxhEwR/JJdmAeg3v9tU
t1avcY8AhI/g5hHHSSi/X5K9aJ3oD1mxUogn1e0kuXa4q2RaOaqlbVkUw+GGX11W
4HgsJFmWItOvQgRPdVQK/P3W3gFFbpsLqdMMy6r4HIGrKLda4PHPfigWTPQdWBaA
cozP+i+0YrmtR8/0aMfjTiuZWdeF0Cjk2/r55++9xkzzpFylF4KuI6BbHedfcr9t
ilTG+I/a7gNNb2KC9VSlrxyXx84Bwnwp83g5r4FxF5Pt1GfNGfqGEw7Et0Qjq+U9
hAdTvMWts7nYM1A6eAfBOb5gkiMKLwHOGDx+wivHxXKrYWZVWo7kD0PwUqJ0V1Hn
Kktdelve+zegflpqgmgfdbJHdofKhMhXCkjCNWheB+Y3Lscnn2cE/xjR+HCz7Rjy
7D/VxNUftd+e5zcB2+hKg43+9wuKjVBaEvIuWdijMf1Z+UQh1+3ET90FABg4VRNM
tqigHrVo7ZogS2lxJFtEUEcB7vPE3Jf9ro21DGf1Uk3owBHVKraxZWxBwbwDsqRI
B2NE7VgfAgMBAAEwDQYJKoZIhvcNAQEEBQADggIBACAdWwm9zdKbC3L8FznCxmg6
/5dLYag5Q4wCLbcKyTdPGtDqvaciNm4xrbxcY+r8dFZmLvHTqZel+/oxhU4YKXU4
cjjZ6Sp6EjD6rUPr2DGqx5c/i6qkxMBSCAGDSZN2G0sQZTfGTICSwGT3DCfSDwUV
NfnA7BtjqIkM7VUnSlC10DEuCRr5vI66tdeyRg7SE9dpVdkU12MLraqKaUCeZ37C
0/1xSlikPlSpFjXMC3Hp+NMX/g05ssdzyLb9nXosnwGdRV+28ZQX85KF+JnmMBr5
GRQh8Rgef72EonKehGqsv1ZnCjGgVYb6DXjwIugTzai/A1zQzuz+TvobmKpny90c
KG+uGkJzsG7Xf/RBgHABgciwnCbSier83rHsmLK0AGElr0FdSVMUFwlrk5ZtitAd
oyfrywguCyF76QuOVNXVheXQXhseMQ9pjVYmWT7cIEkxLo8kE2EVgI+oa2V2dQ6F
NBYmRYHYEae1u8sU6U/maA6qZA4E07kxjMuicRcYik4joCB5SheaI8MlotCX7fRu
F0kxEdnFEUII2TP/uY9NekvSp44UsgWBycB3lHgzknxCvqRNm2YWzQAl/Gr43bFA
TUBK1Id3CSwa1LwuEDUSK3dCRlggfn1f6kdMedC+NBQP0YXe6f67zVeyGZ77YOLI
HEZBAaZkvzbYRvSuHIyZ
-----END CERTIFICATE-----
